target datalayout = "e-m:e-p270:32:32-p271:32:32-p272:64:64-i64:64-i128:128-f80:128-n8:16:32:64-S128"
target triple = "x86_64-unknown-linux-gnu"

%"class.std::__cxx11::basic_string" = type { %"struct.std::__cxx11::basic_string<char>::_Alloc_hider", i64, %union.anon }
%"struct.std::__cxx11::basic_string<char>::_Alloc_hider" = type { ptr }
%union.anon = type { i64, [8 x i8] }
%"struct.std::array" = type { [2 x i64] }
%"class.rocksdb::Slice" = type { ptr, i64 }
%"struct.rocksdb::IngestedFileInfo" = type { %"class.std::__cxx11::basic_string", %"class.rocksdb::InternalKey", %"class.rocksdb::InternalKey", i64, i64, i64, i64, i64, i32, %"struct.rocksdb::TableProperties", i32, %"struct.rocksdb::FileDescriptor", %"class.std::__cxx11::basic_string", i64, i32, i8, %"class.std::__cxx11::basic_string", %"class.std::__cxx11::basic_string", i8, %"struct.std::array" }
%"class.rocksdb::InternalKey" = type { %"class.std::__cxx11::basic_string" }
%"struct.rocksdb::TableProperties" = type { i64, i64, i64, i64, i64, i64, i64, i64, i64, i64, i64, i64, i64, i64, i64, i64, i64, i64, i64, i64, i64, i64, i64, i64, i64, i64, i64, %"class.std::__cxx11::basic_string", %"class.std::__cxx11::basic_string", %"class.std::__cxx11::basic_string", %"class.std::__cxx11::basic_string", %"class.std::__cxx11::basic_string", %"class.std::__cxx11::basic_string", %"class.std::__cxx11::basic_string", %"class.std::__cxx11::basic_string", %"class.std::__cxx11::basic_string", %"class.std::__cxx11::basic_string", %"class.std::__cxx11::basic_string", %"class.std::__cxx11::basic_string", %"class.std::map", %"class.std::map" }
%"class.std::map" = type { %"class.std::_Rb_tree" }
%"class.std::_Rb_tree" = type { %"struct.std::_Rb_tree<std::__cxx11::basic_string<char>, std::pair<const std::__cxx11::basic_string<char>, std::__cxx11::basic_string<char>>, std::_Select1st<std::pair<const std::__cxx11::basic_string<char>, std::__cxx11::basic_string<char>>>, std::less<std::__cxx11::basic_string<char>>>::_Rb_tree_impl" }
%"struct.std::_Rb_tree<std::__cxx11::basic_string<char>, std::pair<const std::__cxx11::basic_string<char>, std::__cxx11::basic_string<char>>, std::_Select1st<std::pair<const std::__cxx11::basic_string<char>, std::__cxx11::basic_string<char>>>, std::less<std::__cxx11::basic_string<char>>>::_Rb_tree_impl" = type { %"struct.std::_Rb_tree_key_compare", %"struct.std::_Rb_tree_header" }
%"struct.std::_Rb_tree_key_compare" = type { %"struct.std::less" }
%"struct.std::less" = type { i8 }
%"struct.std::_Rb_tree_header" = type { %"struct.std::_Rb_tree_node_base", i64 }
%"struct.std::_Rb_tree_node_base" = type { i32, ptr, ptr, ptr }
%"struct.rocksdb::FileDescriptor" = type { ptr, i64, i64, i64, i64 }
%"class.rocksdb::autovector.220" = type { i64, [64 x i8], ptr, %"class.std::vector.221" }
%"class.std::vector.221" = type { %"struct.std::_Vector_base.222" }
%"struct.std::_Vector_base.222" = type { %"struct.std::_Vector_base<const rocksdb::IngestedFileInfo *, std::allocator<const rocksdb::IngestedFileInfo *>>::_Vector_impl" }
%"struct.std::_Vector_base<const rocksdb::IngestedFileInfo *, std::allocator<const rocksdb::IngestedFileInfo *>>::_Vector_impl" = type { %"struct.std::_Vector_base<const rocksdb::IngestedFileInfo *, std::allocator<const rocksdb::IngestedFileInfo *>>::_Vector_impl_data" }
%"struct.std::_Vector_base<const rocksdb::IngestedFileInfo *, std::allocator<const rocksdb::IngestedFileInfo *>>::_Vector_impl_data" = type { ptr, ptr, ptr }
%"class.rocksdb::autovector<const rocksdb::IngestedFileInfo *>::iterator_impl" = type { ptr, i64 }
%class.anon = type { ptr }
%"struct.__gnu_cxx::__ops::_Val_comp_iter" = type { %class.anon }

; Function Attrs: mustprogress nounwind uwtable
define linkonce_odr void @_ZN7rocksdb5SliceC2ERKNSt7__cxx1112basic_stringIcSt11char_traitsIcESaIcEEE(ptr noundef nonnull align 8 dereferenceable(16) %this, ptr noundef nonnull align 8 dereferenceable(32) %s) unnamed_addr #1 comdat align 2 {
entry:
  %this.addr = alloca ptr, align 8
  %s.addr = alloca ptr, align 8
  store ptr %this, ptr %this.addr, align 8
  store ptr %s, ptr %s.addr, align 8
  %this1 = load ptr, ptr %this.addr, align 8
  %data_ = getelementptr inbounds %"class.rocksdb::Slice", ptr %this1, i32 0, i32 0
  %0 = load ptr, ptr %s.addr, align 8
  %call = call noundef ptr @_ZNKSt7__cxx1112basic_stringIcSt11char_traitsIcESaIcEE4dataEv(ptr noundef nonnull align 8 dereferenceable(32) %0) #3
  store ptr %call, ptr %data_, align 8
  %size_ = getelementptr inbounds %"class.rocksdb::Slice", ptr %this1, i32 0, i32 1
  %1 = load ptr, ptr %s.addr, align 8
  %call2 = call noundef i64 @_ZNKSt7__cxx1112basic_stringIcSt11char_traitsIcESaIcEE4sizeEv(ptr noundef nonnull align 8 dereferenceable(32) %1) #3
  store i64 %call2, ptr %size_, align 8
  ret void
}

; Function Attrs: mustprogress uwtable
define linkonce_odr { ptr, i64 } @_ZNK7rocksdb11InternalKey6EncodeEv(ptr noundef nonnull align 8 dereferenceable(32) %this) #0 comdat align 2 {
entry:
  %retval = alloca %"class.rocksdb::Slice", align 8
  %this.addr = alloca ptr, align 8
  store ptr %this, ptr %this.addr, align 8
  %this1 = load ptr, ptr %this.addr, align 8
  %rep_ = getelementptr inbounds %"class.rocksdb::InternalKey", ptr %this1, i32 0, i32 0
  call void @_ZN7rocksdb5SliceC2ERKNSt7__cxx1112basic_stringIcSt11char_traitsIcESaIcEEE(ptr noundef nonnull align 8 dereferenceable(16) %retval, ptr noundef nonnull align 8 dereferenceable(32) %rep_)
  %0 = load { ptr, i64 }, ptr %retval, align 8
  ret { ptr, i64 } %0
}

; Function Attrs: mustprogress uwtable
define linkonce_odr noundef i32 @_ZN7rocksdb17sstableKeyCompareEPKNS_10ComparatorERKNS_11InternalKeyES5_(ptr noundef %user_cmp, ptr noundef nonnull align 8 dereferenceable(32) %a, ptr noundef nonnull align 8 dereferenceable(32) %b) #0 comdat {
entry:
  %user_cmp.addr = alloca ptr, align 8
  %a.addr = alloca ptr, align 8
  %b.addr = alloca ptr, align 8
  %ref.tmp = alloca %"class.rocksdb::Slice", align 8
  %ref.tmp1 = alloca %"class.rocksdb::Slice", align 8
  store ptr %user_cmp, ptr %user_cmp.addr, align 8
  store ptr %a, ptr %a.addr, align 8
  store ptr %b, ptr %b.addr, align 8
  %0 = load ptr, ptr %user_cmp.addr, align 8
  %1 = load ptr, ptr %a.addr, align 8
  %call = call { ptr, i64 } @_ZNK7rocksdb11InternalKey6EncodeEv(ptr noundef nonnull align 8 dereferenceable(32) %1)
  %2 = getelementptr inbounds { ptr, i64 }, ptr %ref.tmp, i32 0, i32 0
  %3 = extractvalue { ptr, i64 } %call, 0
  store ptr %3, ptr %2, align 8
  %4 = getelementptr inbounds { ptr, i64 }, ptr %ref.tmp, i32 0, i32 1
  %5 = extractvalue { ptr, i64 } %call, 1
  store i64 %5, ptr %4, align 8
  %6 = load ptr, ptr %b.addr, align 8
  %call2 = call { ptr, i64 } @_ZNK7rocksdb11InternalKey6EncodeEv(ptr noundef nonnull align 8 dereferenceable(32) %6)
  %7 = getelementptr inbounds { ptr, i64 }, ptr %ref.tmp1, i32 0, i32 0
  %8 = extractvalue { ptr, i64 } %call2, 0
  store ptr %8, ptr %7, align 8
  %9 = getelementptr inbounds { ptr, i64 }, ptr %ref.tmp1, i32 0, i32 1
  %10 = extractvalue { ptr, i64 } %call2, 1
  store i64 %10, ptr %9, align 8
  %call3 = call noundef i32 @_ZN7rocksdb17sstableKeyCompareEPKNS_10ComparatorERKNS_5SliceES5_(ptr noundef %0, ptr noundef nonnull align 8 dereferenceable(16) %ref.tmp, ptr noundef nonnull align 8 dereferenceable(16) %ref.tmp1)
  ret i32 %call3
}

; Function Attrs: mustprogress nounwind uwtable
define linkonce_odr noundef nonnull align 8 dereferenceable(8) ptr @_ZNSt6vectorIPKN7rocksdb16IngestedFileInfoESaIS3_EEixEm(ptr noundef nonnull align 8 dereferenceable(24) %this, i64 noundef %__n) #1 comdat align 2 {
entry:
  %this.addr = alloca ptr, align 8
  %__n.addr = alloca i64, align 8
  store ptr %this, ptr %this.addr, align 8
  store i64 %__n, ptr %__n.addr, align 8
  %this1 = load ptr, ptr %this.addr, align 8
  %_M_impl = getelementptr inbounds %"struct.std::_Vector_base.222", ptr %this1, i32 0, i32 0
  %_M_start = getelementptr inbounds %"struct.std::_Vector_base<const rocksdb::IngestedFileInfo *, std::allocator<const rocksdb::IngestedFileInfo *>>::_Vector_impl_data", ptr %_M_impl, i32 0, i32 0
  %0 = load ptr, ptr %_M_start, align 8
  %1 = load i64, ptr %__n.addr, align 8
  %add.ptr = getelementptr inbounds ptr, ptr %0, i64 %1
  ret ptr %add.ptr
}

; Function Attrs: mustprogress uwtable
define internal noundef zeroext i1 @"_ZZN7rocksdb27ExternalSstFileIngestionJob7PrepareERKSt6vectorINSt7__cxx1112basic_stringIcSt11char_traitsIcESaIcEEESaIS7_EESB_SB_RKNS_11TemperatureEmPNS_12SuperVersionEENK3$_0clEPKNS_16IngestedFileInfoESK_"(ptr noundef nonnull align 8 dereferenceable(8) %this, ptr noundef %info1, ptr noundef %info2) #0 align 2 {
entry:
  %this.addr = alloca ptr, align 8
  %info1.addr = alloca ptr, align 8
  %info2.addr = alloca ptr, align 8
  store ptr %this, ptr %this.addr, align 8
  store ptr %info1, ptr %info1.addr, align 8
  store ptr %info2, ptr %info2.addr, align 8
  %this1 = load ptr, ptr %this.addr, align 8
  %0 = getelementptr inbounds %class.anon, ptr %this1, i32 0, i32 0
  %1 = load ptr, ptr %0, align 8
  %2 = load ptr, ptr %1, align 8
  %3 = load ptr, ptr %info1.addr, align 8
  %smallest_internal_key = getelementptr inbounds %"struct.rocksdb::IngestedFileInfo", ptr %3, i32 0, i32 1
  %4 = load ptr, ptr %info2.addr, align 8
  %smallest_internal_key2 = getelementptr inbounds %"struct.rocksdb::IngestedFileInfo", ptr %4, i32 0, i32 1
  %call = call noundef i32 @_ZN7rocksdb17sstableKeyCompareEPKNS_10ComparatorERKNS_11InternalKeyES5_(ptr noundef %2, ptr noundef nonnull align 8 dereferenceable(32) %smallest_internal_key, ptr noundef nonnull align 8 dereferenceable(32) %smallest_internal_key2)
  %cmp = icmp slt i32 %call, 0
  ret i1 %cmp
}

; Function Attrs: mustprogress nounwind uwtable
define linkonce_odr noundef nonnull align 8 dereferenceable(8) ptr @_ZN7rocksdb10autovectorIPKNS_16IngestedFileInfoELm8EEixEm(ptr noundef nonnull align 8 dereferenceable(104) %this, i64 noundef %n) #1 comdat align 2 {
entry:
  %retval = alloca ptr, align 8
  %this.addr = alloca ptr, align 8
  %n.addr = alloca i64, align 8
  store ptr %this, ptr %this.addr, align 8
  store i64 %n, ptr %n.addr, align 8
  %this1 = load ptr, ptr %this.addr, align 8
  %0 = load i64, ptr %n.addr, align 8
  %cmp = icmp ult i64 %0, 8
  br i1 %cmp, label %if.then, label %if.end

if.then:                                          ; preds = %entry
  %values_ = getelementptr inbounds %"class.rocksdb::autovector.220", ptr %this1, i32 0, i32 2
  %1 = load ptr, ptr %values_, align 8
  %2 = load i64, ptr %n.addr, align 8
  %arrayidx = getelementptr inbounds ptr, ptr %1, i64 %2
  store ptr %arrayidx, ptr %retval, align 8
  br label %return

if.end:                                           ; preds = %entry
  %vect_ = getelementptr inbounds %"class.rocksdb::autovector.220", ptr %this1, i32 0, i32 3
  %3 = load i64, ptr %n.addr, align 8
  %sub = sub i64 %3, 8
  %call = call noundef nonnull align 8 dereferenceable(8) ptr @_ZNSt6vectorIPKN7rocksdb16IngestedFileInfoESaIS3_EEixEm(ptr noundef nonnull align 8 dereferenceable(24) %vect_, i64 noundef %sub) #3
  store ptr %call, ptr %retval, align 8
  br label %return

return:                                           ; preds = %if.end, %if.then
  %4 = load ptr, ptr %retval, align 8
  ret ptr %4
}

; Function Attrs: mustprogress nounwind uwtable
define linkonce_odr void @_ZN7rocksdb10autovectorIPKNS_16IngestedFileInfoELm8EE13iterator_implIS4_S3_ED2Ev(ptr noundef nonnull align 8 dereferenceable(16) %this) unnamed_addr #1 comdat align 2 {
entry:
  %this.addr = alloca ptr, align 8
  store ptr %this, ptr %this.addr, align 8
  ret void
}

; Function Attrs: mustprogress uwtable
define internal noundef zeroext i1 @"_ZN9__gnu_cxx5__ops14_Val_comp_iterIZN7rocksdb27ExternalSstFileIngestionJob7PrepareERKSt6vectorINSt7__cxx1112basic_stringIcSt11char_traitsIcESaIcEEESaISA_EESE_SE_RKNS2_11TemperatureEmPNS2_12SuperVersionEE3$_0EclIPKNS2_16IngestedFileInfoENS2_10autovectorISP_Lm8EE13iterator_implISR_SP_EEEEbRT_T0_"(ptr noundef nonnull align 8 dereferenceable(8) %this, ptr noundef nonnull align 8 dereferenceable(8) %__val, ptr noundef %__it) #0 align 2 {
entry:
  %this.addr = alloca ptr, align 8
  %__val.addr = alloca ptr, align 8
  %__it.indirect_addr = alloca ptr, align 8
  store ptr %this, ptr %this.addr, align 8
  store ptr %__val, ptr %__val.addr, align 8
  store ptr %__it, ptr %__it.indirect_addr, align 8
  %this1 = load ptr, ptr %this.addr, align 8
  %_M_comp = getelementptr inbounds %"struct.__gnu_cxx::__ops::_Val_comp_iter", ptr %this1, i32 0, i32 0
  %0 = load ptr, ptr %__val.addr, align 8
  %1 = load ptr, ptr %0, align 8
  %call = call noundef nonnull align 8 dereferenceable(8) ptr @_ZNK7rocksdb10autovectorIPKNS_16IngestedFileInfoELm8EE13iterator_implIS4_S3_EdeEv(ptr noundef nonnull align 8 dereferenceable(16) %__it)
  %2 = load ptr, ptr %call, align 8
  %call2 = call noundef zeroext i1 @"_ZZN7rocksdb27ExternalSstFileIngestionJob7PrepareERKSt6vectorINSt7__cxx1112basic_stringIcSt11char_traitsIcESaIcEEESaIS7_EESB_SB_RKNS_11TemperatureEmPNS_12SuperVersionEENK3$_0clEPKNS_16IngestedFileInfoESK_"(ptr noundef nonnull align 8 dereferenceable(8) %_M_comp, ptr noundef %1, ptr noundef %2)
  ret i1 %call2
}

; Function Attrs: mustprogress nounwind uwtable
define linkonce_odr noundef nonnull align 8 dereferenceable(16) ptr @_ZN7rocksdb10autovectorIPKNS_16IngestedFileInfoELm8EE13iterator_implIS4_S3_EmmEv(ptr noundef nonnull align 8 dereferenceable(16) %this) #1 comdat align 2 {
entry:
  %this.addr = alloca ptr, align 8
  store ptr %this, ptr %this.addr, align 8
  %this1 = load ptr, ptr %this.addr, align 8
  %index_ = getelementptr inbounds %"class.rocksdb::autovector<const rocksdb::IngestedFileInfo *>::iterator_impl", ptr %this1, i32 0, i32 1
  %0 = load i64, ptr %index_, align 8
  %dec = add i64 %0, -1
  store i64 %dec, ptr %index_, align 8
  ret ptr %this1
}

; Function Attrs: mustprogress uwtable
define linkonce_odr noundef nonnull align 8 dereferenceable(8) ptr @_ZNK7rocksdb10autovectorIPKNS_16IngestedFileInfoELm8EE13iterator_implIS4_S3_EdeEv(ptr noundef nonnull align 8 dereferenceable(16) %this) #0 comdat align 2 {
entry:
  %this.addr = alloca ptr, align 8
  store ptr %this, ptr %this.addr, align 8
  %this1 = load ptr, ptr %this.addr, align 8
  %vect_ = getelementptr inbounds %"class.rocksdb::autovector<const rocksdb::IngestedFileInfo *>::iterator_impl", ptr %this1, i32 0, i32 0
  %0 = load ptr, ptr %vect_, align 8
  %index_ = getelementptr inbounds %"class.rocksdb::autovector<const rocksdb::IngestedFileInfo *>::iterator_impl", ptr %this1, i32 0, i32 1
  %1 = load i64, ptr %index_, align 8
  %call = call noundef nonnull align 8 dereferenceable(8) ptr @_ZN7rocksdb10autovectorIPKNS_16IngestedFileInfoELm8EEixEm(ptr noundef nonnull align 8 dereferenceable(104) %0, i64 noundef %1)
  ret ptr %call
}

; Function Attrs: mustprogress uwtable
define internal void @"_ZSt25__unguarded_linear_insertIN7rocksdb10autovectorIPKNS0_16IngestedFileInfoELm8EE13iterator_implIS5_S4_EEN9__gnu_cxx5__ops14_Val_comp_iterIZNS0_27ExternalSstFileIngestionJob7PrepareERKSt6vectorINSt7__cxx1112basic_stringIcSt11char_traitsIcESaIcEEESaISI_EESM_SM_RKNS0_11TemperatureEmPNS0_12SuperVersionEE3$_0EEEvT_T0_"(ptr noundef %__last, ptr %__comp.coerce) #0 personality ptr @__gxx_personality_v0 {
entry:
  %__comp = alloca %"struct.__gnu_cxx::__ops::_Val_comp_iter", align 8
  %__last.indirect_addr = alloca ptr, align 8
  %__val = alloca ptr, align 8
  %__next = alloca %"class.rocksdb::autovector<const rocksdb::IngestedFileInfo *>::iterator_impl", align 8
  %agg.tmp = alloca %"class.rocksdb::autovector<const rocksdb::IngestedFileInfo *>::iterator_impl", align 8
  %exn.slot = alloca ptr, align 8
  %ehselector.slot = alloca i32, align 4
  %coerce.dive = getelementptr inbounds %"struct.__gnu_cxx::__ops::_Val_comp_iter", ptr %__comp, i32 0, i32 0
  %coerce.dive1 = getelementptr inbounds %class.anon, ptr %coerce.dive, i32 0, i32 0
  store ptr %__comp.coerce, ptr %coerce.dive1, align 8
  store ptr %__last, ptr %__last.indirect_addr, align 8
  %call = call noundef nonnull align 8 dereferenceable(8) ptr @_ZNK7rocksdb10autovectorIPKNS_16IngestedFileInfoELm8EE13iterator_implIS4_S3_EdeEv(ptr noundef nonnull align 8 dereferenceable(16) %__last)
  %0 = load ptr, ptr %call, align 8
  store ptr %0, ptr %__val, align 8
  call void @llvm.memcpy.p0.p0.i64(ptr align 8 %__next, ptr align 8 %__last, i64 16, i1 false)
  %call2 = call noundef nonnull align 8 dereferenceable(16) ptr @_ZN7rocksdb10autovectorIPKNS_16IngestedFileInfoELm8EE13iterator_implIS4_S3_EmmEv(ptr noundef nonnull align 8 dereferenceable(16) %__next)
  br label %while.cond

while.cond:                                       ; preds = %invoke.cont7, %entry
  call void @llvm.memcpy.p0.p0.i64(ptr align 8 %agg.tmp, ptr align 8 %__next, i64 16, i1 false)
  %call3 = invoke noundef zeroext i1 @"_ZN9__gnu_cxx5__ops14_Val_comp_iterIZN7rocksdb27ExternalSstFileIngestionJob7PrepareERKSt6vectorINSt7__cxx1112basic_stringIcSt11char_traitsIcESaIcEEESaISA_EESE_SE_RKNS2_11TemperatureEmPNS2_12SuperVersionEE3$_0EclIPKNS2_16IngestedFileInfoENS2_10autovectorISP_Lm8EE13iterator_implISR_SP_EEEEbRT_T0_"(ptr noundef nonnull align 8 dereferenceable(8) %__comp, ptr noundef nonnull align 8 dereferenceable(8) %__val, ptr noundef %agg.tmp)
          to label %invoke.cont unwind label %lpad

invoke.cont:                                      ; preds = %while.cond
  call void @_ZN7rocksdb10autovectorIPKNS_16IngestedFileInfoELm8EE13iterator_implIS4_S3_ED2Ev(ptr noundef nonnull align 8 dereferenceable(16) %agg.tmp) #3
  br i1 %call3, label %while.body, label %while.end

while.body:                                       ; preds = %invoke.cont
  %call6 = invoke noundef nonnull align 8 dereferenceable(8) ptr @_ZNK7rocksdb10autovectorIPKNS_16IngestedFileInfoELm8EE13iterator_implIS4_S3_EdeEv(ptr noundef nonnull align 8 dereferenceable(16) %__next)
          to label %invoke.cont5 unwind label %lpad4

invoke.cont5:                                     ; preds = %while.body
  %1 = load ptr, ptr %call6, align 8
  %call8 = invoke noundef nonnull align 8 dereferenceable(8) ptr @_ZNK7rocksdb10autovectorIPKNS_16IngestedFileInfoELm8EE13iterator_implIS4_S3_EdeEv(ptr noundef nonnull align 8 dereferenceable(16) %__last)
          to label %invoke.cont7 unwind label %lpad4

invoke.cont7:                                     ; preds = %invoke.cont5
  store ptr %1, ptr %call8, align 8
  call void @llvm.memcpy.p0.p0.i64(ptr align 8 %__last, ptr align 8 %__next, i64 16, i1 false)
  %call9 = call noundef nonnull align 8 dereferenceable(16) ptr @_ZN7rocksdb10autovectorIPKNS_16IngestedFileInfoELm8EE13iterator_implIS4_S3_EmmEv(ptr noundef nonnull align 8 dereferenceable(16) %__next)
  br label %while.cond, !llvm.loop !53

lpad:                                             ; preds = %while.cond
  %2 = landingpad { ptr, i32 }
          cleanup
  %3 = extractvalue { ptr, i32 } %2, 0
  store ptr %3, ptr %exn.slot, align 8
  %4 = extractvalue { ptr, i32 } %2, 1
  store i32 %4, ptr %ehselector.slot, align 4
  call void @_ZN7rocksdb10autovectorIPKNS_16IngestedFileInfoELm8EE13iterator_implIS4_S3_ED2Ev(ptr noundef nonnull align 8 dereferenceable(16) %agg.tmp) #3
  br label %ehcleanup

lpad4:                                            ; preds = %while.end, %invoke.cont5, %while.body
  %5 = landingpad { ptr, i32 }
          cleanup
  %6 = extractvalue { ptr, i32 } %5, 0
  store ptr %6, ptr %exn.slot, align 8
  %7 = extractvalue { ptr, i32 } %5, 1
  store i32 %7, ptr %ehselector.slot, align 4
  br label %ehcleanup

while.end:                                        ; preds = %invoke.cont
  %8 = load ptr, ptr %__val, align 8
  %call11 = invoke noundef nonnull align 8 dereferenceable(8) ptr @_ZNK7rocksdb10autovectorIPKNS_16IngestedFileInfoELm8EE13iterator_implIS4_S3_EdeEv(ptr noundef nonnull align 8 dereferenceable(16) %__last)
          to label %invoke.cont10 unwind label %lpad4

invoke.cont10:                                    ; preds = %while.end
  store ptr %8, ptr %call11, align 8
  call void @_ZN7rocksdb10autovectorIPKNS_16IngestedFileInfoELm8EE13iterator_implIS4_S3_ED2Ev(ptr noundef nonnull align 8 dereferenceable(16) %__next) #3
  ret void

ehcleanup:                                        ; preds = %lpad4, %lpad
  call void @_ZN7rocksdb10autovectorIPKNS_16IngestedFileInfoELm8EE13iterator_implIS4_S3_ED2Ev(ptr noundef nonnull align 8 dereferenceable(16) %__next) #3
  br label %eh.resume

eh.resume:                                        ; preds = %ehcleanup
  %exn = load ptr, ptr %exn.slot, align 8
  %sel = load i32, ptr %ehselector.slot, align 4
  %lpad.val = insertvalue { ptr, i32 } poison, ptr %exn, 0
  %lpad.val12 = insertvalue { ptr, i32 } %lpad.val, i32 %sel, 1
  resume { ptr, i32 } %lpad.val12
}