; Function Attrs: mustprogress uwtable
define internal fastcc void @"_ZSt25__unguarded_linear_insertIN7rocksdb10autovectorIPKNS0_16IngestedFileInfoELm8EE13iterator_implIS5_S4_EEN9__gnu_cxx5__ops14_Val_comp_iterIZNS0_27ExternalSstFileIngestionJob7PrepareERKSt6vectorINSt7__cxx1112basic_stringIcSt11char_traitsIcESaIcEEESaISI_EESM_SM_RKNS0_11TemperatureEmPNS0_12SuperVersionEE3$_0EEEvT_T0_"(ptr nocapture noundef %__last, ptr nocapture readonly %__comp.coerce) unnamed_addr #3 personality ptr @__gxx_personality_v0 {
entry:
  %ref.tmp.i.i.i = alloca %"class.rocksdb::Slice", align 8
  %ref.tmp1.i.i.i = alloca %"class.rocksdb::Slice", align 8
  %0 = load ptr, ptr %__last, align 8
  %index_.i = getelementptr inbounds i8, ptr %__last, i64 8
  %1 = load i64, ptr %index_.i, align 8
  %cmp.i.i = icmp ult i64 %1, 8
  %values_.i.i = getelementptr inbounds i8, ptr %0, i64 72
  %2 = load ptr, ptr %values_.i.i, align 8
  %arrayidx.i.i = getelementptr inbounds ptr, ptr %2, i64 %1
  %vect_.i.i = getelementptr inbounds i8, ptr %0, i64 80
  %3 = load ptr, ptr %vect_.i.i, align 8
  %4 = getelementptr ptr, ptr %3, i64 %1
  %add.ptr.i.i.i = getelementptr i8, ptr %4, i64 -64
  %retval.0.i.i = select i1 %cmp.i.i, ptr %arrayidx.i.i, ptr %add.ptr.i.i.i
  %5 = load ptr, ptr %retval.0.i.i, align 8
  %smallest_internal_key.i.i = getelementptr inbounds i8, ptr %5, i64 32
  %6 = getelementptr inbounds i8, ptr %ref.tmp.i.i.i, i64 8
  %7 = getelementptr inbounds i8, ptr %ref.tmp1.i.i.i, i64 8
  br label %while.cond

while.cond:                                       ; preds = %invoke.cont7, %entry
  %agg.tmp.val.val3 = phi ptr [ %3, %entry ], [ %agg.tmp.val.val3.pre, %invoke.cont7 ]
  %agg.tmp.val.val = phi ptr [ %2, %entry ], [ %agg.tmp.val.val.pre, %invoke.cont7 ]
  %__next.sroa.4.0.in = phi i64 [ %1, %entry ], [ %__next.sroa.4.0, %invoke.cont7 ]
  %__next.sroa.4.0 = add i64 %__next.sroa.4.0.in, -1
  %__comp.val.val = load ptr, ptr %__comp.coerce, align 8
  %cmp.i.i.i = icmp ult i64 %__next.sroa.4.0, 8
  %arrayidx.i.i.i = getelementptr inbounds ptr, ptr %agg.tmp.val.val, i64 %__next.sroa.4.0
  %8 = getelementptr ptr, ptr %agg.tmp.val.val3, i64 %__next.sroa.4.0
  %add.ptr.i.i.i.i = getelementptr i8, ptr %8, i64 -64
  %retval.0.i.i.i = select i1 %cmp.i.i.i, ptr %arrayidx.i.i.i, ptr %add.ptr.i.i.i.i
  %9 = load ptr, ptr %retval.0.i.i.i, align 8
  %smallest_internal_key2.i.i = getelementptr inbounds i8, ptr %9, i64 32
  call void @llvm.lifetime.start.p0(i64 16, ptr nonnull %ref.tmp.i.i.i)
  call void @llvm.lifetime.start.p0(i64 16, ptr nonnull %ref.tmp1.i.i.i)
  %call.i.i.i.i.i = call noundef ptr @_ZNKSt7__cxx1112basic_stringIcSt11char_traitsIcESaIcEE4dataEv(ptr noundef nonnull align 8 dereferenceable(32) %smallest_internal_key.i.i) #21
  %call2.i.i.i.i.i = call noundef i64 @_ZNKSt7__cxx1112basic_stringIcSt11char_traitsIcESaIcEE4sizeEv(ptr noundef nonnull align 8 dereferenceable(32) %smallest_internal_key.i.i) #21
  store ptr %call.i.i.i.i.i, ptr %ref.tmp.i.i.i, align 8
  store i64 %call2.i.i.i.i.i, ptr %6, align 8
  %call.i.i1.i.i.i = call noundef ptr @_ZNKSt7__cxx1112basic_stringIcSt11char_traitsIcESaIcEE4dataEv(ptr noundef nonnull align 8 dereferenceable(32) %smallest_internal_key2.i.i) #21
  %call2.i.i2.i.i.i = call noundef i64 @_ZNKSt7__cxx1112basic_stringIcSt11char_traitsIcESaIcEE4sizeEv(ptr noundef nonnull align 8 dereferenceable(32) %smallest_internal_key2.i.i) #21
  store ptr %call.i.i1.i.i.i, ptr %ref.tmp1.i.i.i, align 8
  store i64 %call2.i.i2.i.i.i, ptr %7, align 8
  %call3.i.i.i6 = call noundef i32 @_ZN7rocksdb17sstableKeyCompareEPKNS_10ComparatorERKNS_5SliceES5_(ptr noundef %__comp.val.val, ptr noundef nonnull align 8 dereferenceable(16) %ref.tmp.i.i.i, ptr noundef nonnull align 8 dereferenceable(16) %ref.tmp1.i.i.i)
  call void @llvm.lifetime.end.p0(i64 16, ptr nonnull %ref.tmp.i.i.i)
  call void @llvm.lifetime.end.p0(i64 16, ptr nonnull %ref.tmp1.i.i.i)
  %cmp.i.i5 = icmp slt i32 %call3.i.i.i6, 0
  br i1 %cmp.i.i5, label %invoke.cont7, label %invoke.cont10

invoke.cont7:                                     ; preds = %while.cond
  %10 = load ptr, ptr %values_.i.i, align 8
  %arrayidx.i.i10 = getelementptr inbounds ptr, ptr %10, i64 %__next.sroa.4.0
  %11 = load ptr, ptr %vect_.i.i, align 8
  %12 = getelementptr ptr, ptr %11, i64 %__next.sroa.4.0
  %add.ptr.i.i.i12 = getelementptr i8, ptr %12, i64 -64
  %retval.0.i.i13 = select i1 %cmp.i.i.i, ptr %arrayidx.i.i10, ptr %add.ptr.i.i.i12
  %13 = load ptr, ptr %retval.0.i.i13, align 8
  %14 = load ptr, ptr %__last, align 8
  %15 = load i64, ptr %index_.i, align 8
  %cmp.i.i15 = icmp ult i64 %15, 8
  %values_.i.i16 = getelementptr inbounds i8, ptr %14, i64 72
  %16 = load ptr, ptr %values_.i.i16, align 8
  %arrayidx.i.i17 = getelementptr inbounds ptr, ptr %16, i64 %15
  %vect_.i.i18 = getelementptr inbounds i8, ptr %14, i64 80
  %17 = load ptr, ptr %vect_.i.i18, align 8
  %18 = getelementptr ptr, ptr %17, i64 %15
  %add.ptr.i.i.i19 = getelementptr i8, ptr %18, i64 -64
  %retval.0.i.i20 = select i1 %cmp.i.i15, ptr %arrayidx.i.i17, ptr %add.ptr.i.i.i19
  store ptr %13, ptr %retval.0.i.i20, align 8
  store ptr %0, ptr %__last, align 8
  store i64 %__next.sroa.4.0, ptr %index_.i, align 8
  %agg.tmp.val.val.pre = load ptr, ptr %values_.i.i, align 8
  %agg.tmp.val.val3.pre = load ptr, ptr %vect_.i.i, align 8
  br label %while.cond, !llvm.loop !160

invoke.cont10:                                    ; preds = %while.cond
  %19 = load ptr, ptr %__last, align 8
  %20 = load i64, ptr %index_.i, align 8
  %cmp.i.i24 = icmp ult i64 %20, 8
  %values_.i.i25 = getelementptr inbounds i8, ptr %19, i64 72
  %21 = load ptr, ptr %values_.i.i25, align 8
  %arrayidx.i.i26 = getelementptr inbounds ptr, ptr %21, i64 %20
  %vect_.i.i27 = getelementptr inbounds i8, ptr %19, i64 80
  %22 = load ptr, ptr %vect_.i.i27, align 8
  %23 = getelementptr ptr, ptr %22, i64 %20
  %add.ptr.i.i.i28 = getelementptr i8, ptr %23, i64 -64
  %retval.0.i.i29 = select i1 %cmp.i.i24, ptr %arrayidx.i.i26, ptr %add.ptr.i.i.i28
  store ptr %5, ptr %retval.0.i.i29, align 8
  ret void
}